; ModuleID = '45/1598.c'
source_filename = "45/1598.c"
target datalayout = "e-m:e-p270:32:32-p271:32:32-p272:64:64-i64:64-f80:128-n8:16:32:64-S128"
target triple = "x86_64-pc-linux-gnu"

@.str = private unnamed_addr constant [6 x i8] c"%s %s\00", align 1
@.str.1 = private unnamed_addr constant [3 x i8] c"%d\00", align 1

; Function Attrs: noinline nounwind uwtable
define dso_local void @main() #0 {
  %1 = alloca [10 x i8], align 1
  %2 = alloca i32, align 4
  %3 = alloca i32, align 4
  %4 = alloca i32, align 4
  %5 = alloca i32, align 4
  %6 = alloca [100 x i8], align 16
  store i32 -1, i32* %4, align 4
  store i32 0, i32* %3, align 4
  %7 = getelementptr inbounds [10 x i8], [10 x i8]* %1, i64 0, i64 0
  %8 = getelementptr inbounds [100 x i8], [100 x i8]* %6, i64 0, i64 0
  %9 = call i32 (i8*, ...) @__isoc99_scanf(i8* getelementptr inbounds ([6 x i8], [6 x i8]* @.str, i64 0, i64 0), i8* %7, i8* %8)
  store i32 0, i32* %2, align 4
  br label %10

10:                                               ; preds = %25, %0
  %11 = load i32, i32* %2, align 4
  %12 = icmp slt i32 %11, 10
  br i1 %12, label %13, label %28

13:                                               ; preds = %10
  %14 = load i32, i32* %2, align 4
  %15 = sext i32 %14 to i64
  %16 = getelementptr inbounds [10 x i8], [10 x i8]* %1, i64 0, i64 %15
  %17 = load i8, i8* %16, align 1
  %18 = sext i8 %17 to i32
  %19 = icmp ne i32 %18, 0
  br i1 %19, label %20, label %23

20:                                               ; preds = %13
  %21 = load i32, i32* %3, align 4
  %22 = add nsw i32 %21, 1
  store i32 %22, i32* %3, align 4
  br label %24

23:                                               ; preds = %13
  br label %28

24:                                               ; preds = %20
  br label %25

25:                                               ; preds = %24
  %26 = load i32, i32* %2, align 4
  %27 = add nsw i32 %26, 1
  store i32 %27, i32* %2, align 4
  br label %10

28:                                               ; preds = %23, %10
  store i32 0, i32* %2, align 4
  br label %29

29:                                               ; preds = %81, %28
  %30 = load i32, i32* %2, align 4
  %31 = icmp slt i32 %30, 100
  br i1 %31, label %32, label %84

32:                                               ; preds = %29
  %33 = load i32, i32* %2, align 4
  %34 = sext i32 %33 to i64
  %35 = getelementptr inbounds [100 x i8], [100 x i8]* %6, i64 0, i64 %34
  %36 = load i8, i8* %35, align 1
  %37 = sext i8 %36 to i32
  %38 = getelementptr inbounds [10 x i8], [10 x i8]* %1, i64 0, i64 0
  %39 = load i8, i8* %38, align 1
  %40 = sext i8 %39 to i32
  %41 = icmp eq i32 %37, %40
  br i1 %41, label %42, label %74

42:                                               ; preds = %32
  store i32 0, i32* %5, align 4
  br label %43

43:                                               ; preds = %70, %42
  %44 = load i32, i32* %5, align 4
  %45 = load i32, i32* %3, align 4
  %46 = icmp slt i32 %44, %45
  br i1 %46, label %47, label %73

47:                                               ; preds = %43
  %48 = load i32, i32* %2, align 4
  %49 = load i32, i32* %5, align 4
  %50 = add nsw i32 %48, %49
  %51 = sext i32 %50 to i64
  %52 = getelementptr inbounds [100 x i8], [100 x i8]* %6, i64 0, i64 %51
  %53 = load i8, i8* %52, align 1
  %54 = sext i8 %53 to i32
  %55 = load i32, i32* %5, align 4
  %56 = sext i32 %55 to i64
  %57 = getelementptr inbounds [10 x i8], [10 x i8]* %1, i64 0, i64 %56
  %58 = load i8, i8* %57, align 1
  %59 = sext i8 %58 to i32
  %60 = icmp ne i32 %54, %59
  br i1 %60, label %61, label %62

61:                                               ; preds = %47
  br label %73

62:                                               ; preds = %47
  %63 = load i32, i32* %5, align 4
  %64 = load i32, i32* %3, align 4
  %65 = sub nsw i32 %64, 1
  %66 = icmp eq i32 %63, %65
  br i1 %66, label %67, label %69

67:                                               ; preds = %62
  %68 = load i32, i32* %2, align 4
  store i32 %68, i32* %4, align 4
  br label %69

69:                                               ; preds = %67, %62
  br label %70

70:                                               ; preds = %69
  %71 = load i32, i32* %5, align 4
  %72 = add nsw i32 %71, 1
  store i32 %72, i32* %5, align 4
  br label %43

73:                                               ; preds = %61, %43
  br label %74

74:                                               ; preds = %73, %32
  %75 = load i32, i32* %4, align 4
  %76 = icmp ne i32 %75, -1
  br i1 %76, label %77, label %80

77:                                               ; preds = %74
  %78 = load i32, i32* %4, align 4
  %79 = call i32 (i8*, ...) @printf(i8* getelementptr inbounds ([3 x i8], [3 x i8]* @.str.1, i64 0, i64 0), i32 %78)
  br label %84

80:                                               ; preds = %74
  br label %81

81:                                               ; preds = %80
  %82 = load i32, i32* %2, align 4
  %83 = add nsw i32 %82, 1
  store i32 %83, i32* %2, align 4
  br label %29

84:                                               ; preds = %77, %29
  ret void
}

declare dso_local i32 @__isoc99_scanf(i8*, ...) #1

declare dso_local i32 @printf(i8*, ...) #1


!llvm.module.flags = !{!0}
!llvm.ident = !{!1}

!0 = !{i32 1, !"wchar_size", i32 4}
!1 = !{!"clang version 10.0.0-4ubuntu1 "}
